; Function Attrs: nounwind uwtable
define internal i32 @dissect_ubx_nav_eoe(ptr noundef %0, ptr noundef readonly captures(none) %1, ptr noundef %2, ptr readnone captures(none) %3) #0 {
  %5 = getelementptr inbounds nuw i8, ptr %1, i64 8
  %6 = load ptr, ptr %5, align 8
  tail call void @col_set_str(ptr noundef %6, i32 noundef 34, ptr noundef nonnull @.str.148) #5
  %7 = load ptr, ptr %5, align 8
  tail call void @col_clear(ptr noundef %7, i32 noundef 25) #5
  %8 = load i32, ptr @hf_ubx_nav_eoe, align 4
  %9 = tail call ptr @proto_tree_add_item(ptr noundef %2, i32 noundef %8, ptr noundef %0, i32 noundef 0, i32 noundef 4, i32 noundef 0) #5
  %10 = load i32, ptr @ett_ubx_nav_eoe, align 4
  %11 = tail call ptr @proto_item_add_subtree(ptr noundef %9, i32 noundef %10) #5
  %12 = load i32, ptr @hf_ubx_nav_eoe_itow, align 4
  %13 = tail call ptr @proto_tree_add_item(ptr noundef %11, i32 noundef %12, ptr noundef %0, i32 noundef 0, i32 noundef 4, i32 noundef -2147483648) #5
  %14 = tail call i32 @tvb_captured_length(ptr noundef %0) #5
  ret i32 %14
}